target datalayout = "e-m:e-p270:32:32-p271:32:32-p272:64:64-i64:64-i128:128-f80:128-n8:16:32:64-S128"
target triple = "x86_64-pc-linux-gnu"

; Function Attrs: nounwind uwtable
define dso_local i32 @pg_wchar_strncmp(ptr noundef %0, ptr noundef %1, i64 noundef %2) #0 {
  %4 = alloca i32, align 4
  %5 = alloca ptr, align 8
  %6 = alloca ptr, align 8
  %7 = alloca i64, align 8
  store ptr %0, ptr %5, align 8
  store ptr %1, ptr %6, align 8
  store i64 %2, ptr %7, align 8
  %8 = load i64, ptr %7, align 8
  %9 = icmp eq i64 %8, 0
  br i1 %9, label %10, label %11

10:                                               ; preds = %3
  store i32 0, ptr %4, align 4
  br label %38

11:                                               ; preds = %3
  br label %12

12:                                               ; preds = %33, %11
  %13 = load ptr, ptr %5, align 8
  %14 = load i32, ptr %13, align 4
  %15 = load ptr, ptr %6, align 8
  %16 = getelementptr inbounds nuw i32, ptr %15, i32 1
  store ptr %16, ptr %6, align 8
  %17 = load i32, ptr %15, align 4
  %18 = icmp ne i32 %14, %17
  br i1 %18, label %19, label %26

19:                                               ; preds = %12
  %20 = load ptr, ptr %5, align 8
  %21 = load i32, ptr %20, align 4
  %22 = load ptr, ptr %6, align 8
  %23 = getelementptr inbounds i32, ptr %22, i64 -1
  %24 = load i32, ptr %23, align 4
  %25 = sub i32 %21, %24
  store i32 %25, ptr %4, align 4
  br label %38

26:                                               ; preds = %12
  %27 = load ptr, ptr %5, align 8
  %28 = getelementptr inbounds nuw i32, ptr %27, i32 1
  store ptr %28, ptr %5, align 8
  %29 = load i32, ptr %27, align 4
  %30 = icmp eq i32 %29, 0
  br i1 %30, label %31, label %32

31:                                               ; preds = %26
  br label %37

32:                                               ; preds = %26
  br label %33

33:                                               ; preds = %32
  %34 = load i64, ptr %7, align 8
  %35 = add i64 %34, -1
  store i64 %35, ptr %7, align 8
  %36 = icmp ne i64 %35, 0
  br i1 %36, label %12, label %37, !llvm.loop !4

37:                                               ; preds = %33, %31
  store i32 0, ptr %4, align 4
  br label %38

38:                                               ; preds = %37, %19, %10
  %39 = load i32, ptr %4, align 4
  ret i32 %39
}

; Function Attrs: nounwind uwtable
define dso_local i32 @pg_char_and_wchar_strncmp(ptr noundef %0, ptr noundef %1, i64 noundef %2) #0 {
  %4 = alloca i32, align 4
  %5 = alloca ptr, align 8
  %6 = alloca ptr, align 8
  %7 = alloca i64, align 8
  store ptr %0, ptr %5, align 8
  store ptr %1, ptr %6, align 8
  store i64 %2, ptr %7, align 8
  %8 = load i64, ptr %7, align 8
  %9 = icmp eq i64 %8, 0
  br i1 %9, label %10, label %11

10:                                               ; preds = %3
  store i32 0, ptr %4, align 4
  br label %41

11:                                               ; preds = %3
  br label %12

12:                                               ; preds = %36, %11
  %13 = load ptr, ptr %5, align 8
  %14 = load i8, ptr %13, align 1
  %15 = zext i8 %14 to i32
  %16 = load ptr, ptr %6, align 8
  %17 = getelementptr inbounds nuw i32, ptr %16, i32 1
  store ptr %17, ptr %6, align 8
  %18 = load i32, ptr %16, align 4
  %19 = icmp ne i32 %15, %18
  br i1 %19, label %20, label %28

20:                                               ; preds = %12
  %21 = load ptr, ptr %5, align 8
  %22 = load i8, ptr %21, align 1
  %23 = zext i8 %22 to i32
  %24 = load ptr, ptr %6, align 8
  %25 = getelementptr inbounds i32, ptr %24, i64 -1
  %26 = load i32, ptr %25, align 4
  %27 = sub i32 %23, %26
  store i32 %27, ptr %4, align 4
  br label %41

28:                                               ; preds = %12
  %29 = load ptr, ptr %5, align 8
  %30 = getelementptr inbounds nuw i8, ptr %29, i32 1
  store ptr %30, ptr %5, align 8
  %31 = load i8, ptr %29, align 1
  %32 = sext i8 %31 to i32
  %33 = icmp eq i32 %32, 0
  br i1 %33, label %34, label %35

34:                                               ; preds = %28
  br label %40

35:                                               ; preds = %28
  br label %36

36:                                               ; preds = %35
  %37 = load i64, ptr %7, align 8
  %38 = add i64 %37, -1
  store i64 %38, ptr %7, align 8
  %39 = icmp ne i64 %38, 0
  br i1 %39, label %12, label %40, !llvm.loop !6

40:                                               ; preds = %36, %34
  store i32 0, ptr %4, align 4
  br label %41

41:                                               ; preds = %40, %20, %10
  %42 = load i32, ptr %4, align 4
  ret i32 %42
}

; Function Attrs: nounwind uwtable
define dso_local i64 @pg_wchar_strlen(ptr noundef %0) #0 {
  %2 = alloca ptr, align 8
  %3 = alloca ptr, align 8
  store ptr %0, ptr %2, align 8
  call void @llvm.lifetime.start.p0(i64 8, ptr %3) #2
  %4 = load ptr, ptr %2, align 8
  store ptr %4, ptr %3, align 8
  br label %5

5:                                                ; preds = %10, %1
  %6 = load ptr, ptr %3, align 8
  %7 = load i32, ptr %6, align 4
  %8 = icmp ne i32 %7, 0
  br i1 %8, label %9, label %13

9:                                                ; preds = %5
  br label %10

10:                                               ; preds = %9
  %11 = load ptr, ptr %3, align 8
  %12 = getelementptr inbounds nuw i32, ptr %11, i32 1
  store ptr %12, ptr %3, align 8
  br label %5, !llvm.loop !7

13:                                               ; preds = %5
  %14 = load ptr, ptr %3, align 8
  %15 = load ptr, ptr %2, align 8
  %16 = ptrtoint ptr %14 to i64
  %17 = ptrtoint ptr %15 to i64
  %18 = sub i64 %16, %17
  %19 = sdiv exact i64 %18, 4
  call void @llvm.lifetime.end.p0(i64 8, ptr %3) #2
  ret i64 %19
}

; Function Attrs: nocallback nofree nosync nounwind willreturn memory(argmem: readwrite)
declare void @llvm.lifetime.start.p0(i64 immarg, ptr captures(none)) #1

; Function Attrs: nocallback nofree nosync nounwind willreturn memory(argmem: readwrite)
declare void @llvm.lifetime.end.p0(i64 immarg, ptr captures(none)) #1


!llvm.module.flags = !{!0, !1, !2, !3}

!0 = !{i32 1, !"wchar_size", i32 4}
!1 = !{i32 8, !"PIC Level", i32 2}
!2 = !{i32 7, !"PIE Level", i32 2}
!3 = !{i32 7, !"uwtable", i32 2}
!4 = distinct !{!4, !5}
!5 = !{!"llvm.loop.mustprogress"}
!6 = distinct !{!6, !5}
!7 = distinct !{!7, !5}
